; Function Attrs: nofree norecurse nosync nounwind memory(argmem: readwrite) uwtable
define void @ff_h264_luma_dc_dequant_idct_9_c(ptr noundef writeonly captures(none) %0, ptr noundef readonly captures(none) %1, i32 noundef %2) local_unnamed_addr #0 {
  %4 = alloca [16 x i32], align 16
  call void @llvm.lifetime.start.p0(i64 64, ptr nonnull %4) #6
  br label %5

5:                                                ; preds = %3, %5
  %indvars.iv = phi i64 [ 0, %3 ], [ %indvars.iv.next, %5 ]
  %6 = shl nuw nsw i64 %indvars.iv, 2
  %7 = getelementptr inbounds nuw i32, ptr %1, i64 %6
  %8 = load i32, ptr %7, align 4, !tbaa !18
  %9 = or disjoint i64 %6, 1
  %10 = getelementptr inbounds nuw i32, ptr %1, i64 %9
  %11 = load i32, ptr %10, align 4, !tbaa !18
  %12 = add nsw i32 %11, %8
  %13 = sub nsw i32 %8, %11
  %14 = or disjoint i64 %6, 2
  %15 = getelementptr inbounds nuw i32, ptr %1, i64 %14
  %16 = load i32, ptr %15, align 4, !tbaa !18
  %17 = or disjoint i64 %6, 3
  %18 = getelementptr inbounds nuw i32, ptr %1, i64 %17
  %19 = load i32, ptr %18, align 4, !tbaa !18
  %20 = sub nsw i32 %16, %19
  %21 = add nsw i32 %19, %16
  %22 = add nsw i32 %21, %12
  %23 = getelementptr inbounds nuw [16 x i32], ptr %4, i64 0, i64 %6
  store i32 %22, ptr %23, align 16, !tbaa !18
  %24 = sub nsw i32 %12, %21
  %25 = getelementptr inbounds nuw [16 x i32], ptr %4, i64 0, i64 %9
  store i32 %24, ptr %25, align 4, !tbaa !18
  %26 = sub nsw i32 %13, %20
  %27 = getelementptr inbounds nuw [16 x i32], ptr %4, i64 0, i64 %14
  store i32 %26, ptr %27, align 8, !tbaa !18
  %28 = add nsw i32 %20, %13
  %29 = getelementptr inbounds nuw [16 x i32], ptr %4, i64 0, i64 %17
  store i32 %28, ptr %29, align 4, !tbaa !18
  %indvars.iv.next = add nuw nsw i64 %indvars.iv, 1
  %exitcond.not = icmp eq i64 %indvars.iv.next, 4
  br i1 %exitcond.not, label %.preheader, label %5, !llvm.loop !53

.preheader:                                       ; preds = %5, %.preheader
  %indvars.iv65 = phi i64 [ %indvars.iv.next66, %.preheader ], [ 0, %5 ]
  %30 = getelementptr inbounds nuw [4 x i8], ptr @ff_h264_luma_dc_dequant_idct_14_c.x_offset, i64 0, i64 %indvars.iv65
  %31 = load i8, ptr %30, align 1, !tbaa !10
  %32 = zext i8 %31 to i64
  %33 = getelementptr inbounds nuw [16 x i32], ptr %4, i64 0, i64 %indvars.iv65
  %34 = load i32, ptr %33, align 4, !tbaa !18
  %35 = or disjoint i64 %indvars.iv65, 8
  %36 = getelementptr inbounds nuw [16 x i32], ptr %4, i64 0, i64 %35
  %37 = load i32, ptr %36, align 4, !tbaa !18
  %38 = add nsw i32 %37, %34
  %39 = sub nsw i32 %34, %37
  %40 = or disjoint i64 %indvars.iv65, 4
  %41 = getelementptr inbounds nuw [16 x i32], ptr %4, i64 0, i64 %40
  %42 = load i32, ptr %41, align 4, !tbaa !18
  %43 = or disjoint i64 %indvars.iv65, 12
  %44 = getelementptr inbounds nuw [16 x i32], ptr %4, i64 0, i64 %43
  %45 = load i32, ptr %44, align 4, !tbaa !18
  %46 = sub nsw i32 %42, %45
  %47 = add nsw i32 %45, %42
  %48 = add i32 %47, %38
  %49 = mul i32 %48, %2
  %50 = add i32 %49, 128
  %51 = ashr i32 %50, 8
  %52 = getelementptr inbounds nuw i32, ptr %0, i64 %32
  store i32 %51, ptr %52, align 4, !tbaa !18
  %53 = add i32 %46, %39
  %54 = mul i32 %53, %2
  %55 = add i32 %54, 128
  %56 = ashr i32 %55, 8
  %57 = getelementptr inbounds nuw i8, ptr %52, i64 64
  store i32 %56, ptr %57, align 4, !tbaa !18
  %58 = sub i32 %39, %46
  %59 = mul i32 %58, %2
  %60 = add i32 %59, 128
  %61 = ashr i32 %60, 8
  %62 = getelementptr inbounds nuw i8, ptr %52, i64 256
  store i32 %61, ptr %62, align 4, !tbaa !18
  %63 = sub i32 %38, %47
  %64 = mul i32 %63, %2
  %65 = add i32 %64, 128
  %66 = ashr i32 %65, 8
  %67 = getelementptr inbounds nuw i8, ptr %52, i64 320
  store i32 %66, ptr %67, align 4, !tbaa !18
  %indvars.iv.next66 = add nuw nsw i64 %indvars.iv65, 1
  %exitcond68.not = icmp eq i64 %indvars.iv.next66, 4
  br i1 %exitcond68.not, label %68, label %.preheader, !llvm.loop !54

68:                                               ; preds = %.preheader
  call void @llvm.lifetime.end.p0(i64 64, ptr nonnull %4) #6
  ret void
}